; ModuleID = '46/89.c'
source_filename = "46/89.c"
target datalayout = "e-m:e-p270:32:32-p271:32:32-p272:64:64-i64:64-f80:128-n8:16:32:64-S128"
target triple = "x86_64-pc-linux-gnu"

@.str = private unnamed_addr constant [6 x i8] c"%d %d\00", align 1
@.str.1 = private unnamed_addr constant [3 x i8] c"%d\00", align 1
@.str.2 = private unnamed_addr constant [4 x i8] c"%d\0A\00", align 1

; Function Attrs: noinline nounwind uwtable
define dso_local i32 @main() #0 {
  %1 = alloca i32, align 4
  %2 = alloca i32, align 4
  %3 = alloca i32, align 4
  %4 = alloca i32, align 4
  %5 = alloca i32, align 4
  %6 = alloca [100 x [100 x i32]], align 16
  %7 = alloca i32, align 4
  %8 = alloca i32, align 4
  %9 = alloca i32, align 4
  store i32 0, i32* %1, align 4
  store i32 0, i32* %8, align 4
  %10 = call i32 (i8*, ...) @__isoc99_scanf(i8* getelementptr inbounds ([6 x i8], [6 x i8]* @.str, i64 0, i64 0), i32* %4, i32* %5)
  %11 = load i32, i32* %4, align 4
  %12 = load i32, i32* %5, align 4
  %13 = mul nsw i32 %11, %12
  store i32 %13, i32* %9, align 4
  store i32 0, i32* %3, align 4
  br label %14

14:                                               ; preds = %35, %0
  %15 = load i32, i32* %3, align 4
  %16 = load i32, i32* %4, align 4
  %17 = icmp slt i32 %15, %16
  br i1 %17, label %18, label %38

18:                                               ; preds = %14
  store i32 0, i32* %2, align 4
  br label %19

19:                                               ; preds = %31, %18
  %20 = load i32, i32* %2, align 4
  %21 = load i32, i32* %5, align 4
  %22 = icmp slt i32 %20, %21
  br i1 %22, label %23, label %34

23:                                               ; preds = %19
  %24 = load i32, i32* %3, align 4
  %25 = sext i32 %24 to i64
  %26 = getelementptr inbounds [100 x [100 x i32]], [100 x [100 x i32]]* %6, i64 0, i64 %25
  %27 = load i32, i32* %2, align 4
  %28 = sext i32 %27 to i64
  %29 = getelementptr inbounds [100 x i32], [100 x i32]* %26, i64 0, i64 %28
  %30 = call i32 (i8*, ...) @__isoc99_scanf(i8* getelementptr inbounds ([3 x i8], [3 x i8]* @.str.1, i64 0, i64 0), i32* %29)
  br label %31

31:                                               ; preds = %23
  %32 = load i32, i32* %2, align 4
  %33 = add nsw i32 %32, 1
  store i32 %33, i32* %2, align 4
  br label %19

34:                                               ; preds = %19
  br label %35

35:                                               ; preds = %34
  %36 = load i32, i32* %3, align 4
  %37 = add nsw i32 %36, 1
  store i32 %37, i32* %3, align 4
  br label %14

38:                                               ; preds = %14
  store i32 0, i32* %7, align 4
  br label %39

39:                                               ; preds = %172, %38
  %40 = load i32, i32* %8, align 4
  %41 = load i32, i32* %9, align 4
  %42 = icmp slt i32 %40, %41
  br i1 %42, label %43, label %170

43:                                               ; preds = %39
  %44 = load i32, i32* %7, align 4
  store i32 %44, i32* %2, align 4
  %45 = load i32, i32* %7, align 4
  store i32 %45, i32* %3, align 4
  br label %46

46:                                               ; preds = %69, %43
  %47 = load i32, i32* %2, align 4
  %48 = load i32, i32* %5, align 4
  %49 = load i32, i32* %7, align 4
  %50 = sub nsw i32 %48, %49
  %51 = icmp slt i32 %47, %50
  br i1 %51, label %52, label %72

52:                                               ; preds = %46
  %53 = load i32, i32* %8, align 4
  %54 = load i32, i32* %9, align 4
  %55 = icmp slt i32 %53, %54
  br i1 %55, label %56, label %67

56:                                               ; preds = %52
  %57 = load i32, i32* %3, align 4
  %58 = sext i32 %57 to i64
  %59 = getelementptr inbounds [100 x [100 x i32]], [100 x [100 x i32]]* %6, i64 0, i64 %58
  %60 = load i32, i32* %2, align 4
  %61 = sext i32 %60 to i64
  %62 = getelementptr inbounds [100 x i32], [100 x i32]* %59, i64 0, i64 %61
  %63 = load i32, i32* %62, align 4
  %64 = call i32 (i8*, ...) @printf(i8* getelementptr inbounds ([4 x i8], [4 x i8]* @.str.2, i64 0, i64 0), i32 %63)
  %65 = load i32, i32* %8, align 4
  %66 = add nsw i32 %65, 1
  store i32 %66, i32* %8, align 4
  br label %68

67:                                               ; preds = %52
  br label %72

68:                                               ; preds = %56
  br label %69

69:                                               ; preds = %68
  %70 = load i32, i32* %2, align 4
  %71 = add nsw i32 %70, 1
  store i32 %71, i32* %2, align 4
  br label %46

72:                                               ; preds = %67, %46
  %73 = load i32, i32* %5, align 4
  %74 = sub nsw i32 %73, 1
  %75 = load i32, i32* %7, align 4
  %76 = sub nsw i32 %74, %75
  store i32 %76, i32* %2, align 4
  %77 = load i32, i32* %7, align 4
  %78 = add nsw i32 %77, 1
  store i32 %78, i32* %3, align 4
  br label %79

79:                                               ; preds = %102, %72
  %80 = load i32, i32* %3, align 4
  %81 = load i32, i32* %4, align 4
  %82 = load i32, i32* %7, align 4
  %83 = sub nsw i32 %81, %82
  %84 = icmp slt i32 %80, %83
  br i1 %84, label %85, label %105

85:                                               ; preds = %79
  %86 = load i32, i32* %8, align 4
  %87 = load i32, i32* %9, align 4
  %88 = icmp slt i32 %86, %87
  br i1 %88, label %89, label %100

89:                                               ; preds = %85
  %90 = load i32, i32* %3, align 4
  %91 = sext i32 %90 to i64
  %92 = getelementptr inbounds [100 x [100 x i32]], [100 x [100 x i32]]* %6, i64 0, i64 %91
  %93 = load i32, i32* %2, align 4
  %94 = sext i32 %93 to i64
  %95 = getelementptr inbounds [100 x i32], [100 x i32]* %92, i64 0, i64 %94
  %96 = load i32, i32* %95, align 4
  %97 = call i32 (i8*, ...) @printf(i8* getelementptr inbounds ([4 x i8], [4 x i8]* @.str.2, i64 0, i64 0), i32 %96)
  %98 = load i32, i32* %8, align 4
  %99 = add nsw i32 %98, 1
  store i32 %99, i32* %8, align 4
  br label %101

100:                                              ; preds = %85
  br label %105

101:                                              ; preds = %89
  br label %102

102:                                              ; preds = %101
  %103 = load i32, i32* %3, align 4
  %104 = add nsw i32 %103, 1
  store i32 %104, i32* %3, align 4
  br label %79

105:                                              ; preds = %100, %79
  %106 = load i32, i32* %4, align 4
  %107 = sub nsw i32 %106, 1
  %108 = load i32, i32* %7, align 4
  %109 = sub nsw i32 %107, %108
  store i32 %109, i32* %3, align 4
  %110 = load i32, i32* %5, align 4
  %111 = sub nsw i32 %110, 2
  %112 = load i32, i32* %7, align 4
  %113 = sub nsw i32 %111, %112
  store i32 %113, i32* %2, align 4
  br label %114

114:                                              ; preds = %135, %105
  %115 = load i32, i32* %2, align 4
  %116 = load i32, i32* %7, align 4
  %117 = icmp sge i32 %115, %116
  br i1 %117, label %118, label %138

118:                                              ; preds = %114
  %119 = load i32, i32* %8, align 4
  %120 = load i32, i32* %9, align 4
  %121 = icmp slt i32 %119, %120
  br i1 %121, label %122, label %133

122:                                              ; preds = %118
  %123 = load i32, i32* %3, align 4
  %124 = sext i32 %123 to i64
  %125 = getelementptr inbounds [100 x [100 x i32]], [100 x [100 x i32]]* %6, i64 0, i64 %124
  %126 = load i32, i32* %2, align 4
  %127 = sext i32 %126 to i64
  %128 = getelementptr inbounds [100 x i32], [100 x i32]* %125, i64 0, i64 %127
  %129 = load i32, i32* %128, align 4
  %130 = call i32 (i8*, ...) @printf(i8* getelementptr inbounds ([4 x i8], [4 x i8]* @.str.2, i64 0, i64 0), i32 %129)
  %131 = load i32, i32* %8, align 4
  %132 = add nsw i32 %131, 1
  store i32 %132, i32* %8, align 4
  br label %134

133:                                              ; preds = %118
  br label %138

134:                                              ; preds = %122
  br label %135

135:                                              ; preds = %134
  %136 = load i32, i32* %2, align 4
  %137 = add nsw i32 %136, -1
  store i32 %137, i32* %2, align 4
  br label %114

138:                                              ; preds = %133, %114
  %139 = load i32, i32* %7, align 4
  store i32 %139, i32* %2, align 4
  %140 = load i32, i32* %4, align 4
  %141 = sub nsw i32 %140, 2
  %142 = load i32, i32* %7, align 4
  %143 = sub nsw i32 %141, %142
  store i32 %143, i32* %3, align 4
  br label %144

144:                                              ; preds = %166, %138
  %145 = load i32, i32* %3, align 4
  %146 = load i32, i32* %7, align 4
  %147 = add nsw i32 %146, 1
  %148 = icmp sge i32 %145, %147
  br i1 %148, label %149, label %169

149:                                              ; preds = %144
  %150 = load i32, i32* %8, align 4
  %151 = load i32, i32* %9, align 4
  %152 = icmp slt i32 %150, %151
  br i1 %152, label %153, label %164

153:                                              ; preds = %149
  %154 = load i32, i32* %3, align 4
  %155 = sext i32 %154 to i64
  %156 = getelementptr inbounds [100 x [100 x i32]], [100 x [100 x i32]]* %6, i64 0, i64 %155
  %157 = load i32, i32* %2, align 4
  %158 = sext i32 %157 to i64
  %159 = getelementptr inbounds [100 x i32], [100 x i32]* %156, i64 0, i64 %158
  %160 = load i32, i32* %159, align 4
  %161 = call i32 (i8*, ...) @printf(i8* getelementptr inbounds ([4 x i8], [4 x i8]* @.str.2, i64 0, i64 0), i32 %160)
  %162 = load i32, i32* %8, align 4
  %163 = add nsw i32 %162, 1
  store i32 %163, i32* %8, align 4
  br label %165

164:                                              ; preds = %149
  br label %169

165:                                              ; preds = %153
  br label %166

166:                                              ; preds = %165
  %167 = load i32, i32* %3, align 4
  %168 = add nsw i32 %167, -1
  store i32 %168, i32* %3, align 4
  br label %144

169:                                              ; preds = %164, %144
  br label %171

170:                                              ; preds = %39
  br label %175

171:                                              ; preds = %169
  br label %172

172:                                              ; preds = %171
  %173 = load i32, i32* %7, align 4
  %174 = add nsw i32 %173, 1
  store i32 %174, i32* %7, align 4
  br label %39

175:                                              ; preds = %170
  ret i32 0
}

declare dso_local i32 @__isoc99_scanf(i8*, ...) #1

declare dso_local i32 @printf(i8*, ...) #1


!llvm.module.flags = !{!0}
!llvm.ident = !{!1}

!0 = !{i32 1, !"wchar_size", i32 4}
!1 = !{!"clang version 10.0.0-4ubuntu1 "}
